; Function Attrs: mustprogress nounwind uwtable
define void @_ZN4LIEF3ELF6X86ISA6createEjRNS_12BinaryStreamE(ptr dead_on_unwind noalias writable sret(%"class.std::unique_ptr") align 8 %0, i32 noundef %1, ptr noundef nonnull align 8 dereferenceable(24) %2) local_unnamed_addr #0 align 2 {
  switch i32 %1, label %10 [
    i32 -1073676286, label %4
    i32 -1073709054, label %5
    i32 -1073741824, label %6
    i32 -1073741823, label %7
    i32 -1073676288, label %8
    i32 -1073709056, label %9
  ]

4:                                                ; preds = %3
  tail call void @_ZN4LIEF3ELF6X86ISA12create_isa_1ENS1_4FLAGERNS_12BinaryStreamE(ptr dead_on_unwind writable sret(%"class.std::unique_ptr") align 8 %0, i32 noundef 1, ptr noundef nonnull align 8 dereferenceable(24) %2)
  br label %11

5:                                                ; preds = %3
  tail call void @_ZN4LIEF3ELF6X86ISA12create_isa_1ENS1_4FLAGERNS_12BinaryStreamE(ptr dead_on_unwind writable sret(%"class.std::unique_ptr") align 8 %0, i32 noundef 2, ptr noundef nonnull align 8 dereferenceable(24) %2)
  br label %11

6:                                                ; preds = %3
  tail call void @_ZN4LIEF3ELF6X86ISA19create_compat_isa_1ENS1_4FLAGERNS_12BinaryStreamEb(ptr dead_on_unwind writable sret(%"class.std::unique_ptr") align 8 %0, i32 noundef 1, ptr noundef nonnull align 8 dereferenceable(24) %2, i1 noundef zeroext false)
  br label %11

7:                                                ; preds = %3
  tail call void @_ZN4LIEF3ELF6X86ISA19create_compat_isa_1ENS1_4FLAGERNS_12BinaryStreamEb(ptr dead_on_unwind writable sret(%"class.std::unique_ptr") align 8 %0, i32 noundef 2, ptr noundef nonnull align 8 dereferenceable(24) %2, i1 noundef zeroext false)
  br label %11

8:                                                ; preds = %3
  tail call void @_ZN4LIEF3ELF6X86ISA19create_compat_isa_1ENS1_4FLAGERNS_12BinaryStreamEb(ptr dead_on_unwind writable sret(%"class.std::unique_ptr") align 8 %0, i32 noundef 1, ptr noundef nonnull align 8 dereferenceable(24) %2, i1 noundef zeroext true)
  br label %11

9:                                                ; preds = %3
  tail call void @_ZN4LIEF3ELF6X86ISA19create_compat_isa_1ENS1_4FLAGERNS_12BinaryStreamEb(ptr dead_on_unwind writable sret(%"class.std::unique_ptr") align 8 %0, i32 noundef 2, ptr noundef nonnull align 8 dereferenceable(24) %2, i1 noundef zeroext true)
  br label %11

10:                                               ; preds = %3
  store ptr null, ptr %0, align 8, !tbaa !3
  br label %11

11:                                               ; preds = %10, %9, %8, %7, %6, %5, %4
  ret void
}